(dp1
S'lastrequest'
p2
F1371042755.465966
sS'city'
p3
S'Leeuwarden'
p4
sS'weather_data'
p5
(dp6
Vclouds
p7
(dp8
Vall
p9
I75
ssVname
p10
VLeeuwarden
p11
sVcoord
p12
(dp13
Vlat
p14
F53.201388999999999
sVlon
p15
F5.8085899999999997
ssVsys
p16
(dp17
Vcountry
p18
VNL
p19
sVsunset
p20
I1371067452
sVsunrise
p21
I1371006558
ssVweather
p22
(lp23
(dp24
Vmain
p25
VMist
p26
sVid
p27
I701
sVicon
p28
V50d
p29
sVdescription
p30
Vmist
p31
sasVcod
p32
I200
sVbase
p33
Vglobal stations
p34
sVdt
p35
I1371042607
sVmain
p36
(dp37
Vpressure
p38
I1014
sVtemp_min
p39
I16
sVtemp_max
p40
F21.109999999999999
sVtemp
p41
F18.18
sVhumidity
p42
I87
ssVid
p43
I2751792
sVwind
p44
(dp45
Vgust
p46
F12.9
sVspeed
p47
F7.7000000000000002
sVdeg
p48
I220
sss.